target datalayout = "e-m:e-p270:32:32-p271:32:32-p272:64:64-i64:64-i128:128-f80:128-n8:16:32:64-S128"
target triple = "x86_64-pc-linux-gnu"

; Function Attrs: mustprogress norecurse uwtable
define dso_local noundef i32 @main(i32 noundef %0, ptr noundef %1) #10 {
  %3 = alloca i32, align 4
  %4 = alloca ptr, align 8
  store i32 %0, ptr %3, align 4
  store ptr %1, ptr %4, align 8
  call void @_ZN10open_spiel5tarok14BasicGameTestsEv()
  call void @_ZN10open_spiel5tarok25CardDeckShufflingSeedTestEv()
  call void @_ZN10open_spiel5tarok18DealtCardsSizeTestEi(i32 noundef 3)
  call void @_ZN10open_spiel5tarok18DealtCardsSizeTestEi(i32 noundef 4)
  call void @_ZN10open_spiel5tarok21DealtCardsContentTestEi(i32 noundef 3)
  call void @_ZN10open_spiel5tarok21DealtCardsContentTestEi(i32 noundef 4)
  call void @_ZN10open_spiel5tarok22PlayersCardsSortedTestEv()
  call void @_ZN10open_spiel5tarok14CountCardsTestEv()
  call void @_ZN10open_spiel5tarok20CardDealingPhaseTestEv()
  call void @_ZN10open_spiel5tarok25BiddingPhase3PlayersTest1Ev()
  call void @_ZN10open_spiel5tarok25BiddingPhase3PlayersTest2Ev()
  call void @_ZN10open_spiel5tarok25BiddingPhase3PlayersTest3Ev()
  call void @_ZN10open_spiel5tarok25BiddingPhase3PlayersTest4Ev()
  call void @_ZN10open_spiel5tarok25BiddingPhase4PlayersTest1Ev()
  call void @_ZN10open_spiel5tarok25BiddingPhase4PlayersTest2Ev()
  call void @_ZN10open_spiel5tarok25BiddingPhase4PlayersTest3Ev()
  call void @_ZN10open_spiel5tarok25BiddingPhase4PlayersTest4Ev()
  call void @_ZN10open_spiel5tarok25BiddingPhase4PlayersTest5Ev()
  call void @_ZN10open_spiel5tarok23TalonExchangePhaseTest1Ev()
  call void @_ZN10open_spiel5tarok23TalonExchangePhaseTest2Ev()
  call void @_ZN10open_spiel5tarok23TalonExchangePhaseTest3Ev()
  call void @_ZN10open_spiel5tarok23TalonExchangePhaseTest4Ev()
  call void @_ZN10open_spiel5tarok23TalonExchangePhaseTest5Ev()
  call void @_ZN10open_spiel5tarok23TalonExchangePhaseTest6Ev()
  call void @_ZN10open_spiel5tarok23TalonExchangePhaseTest7Ev()
  call void @_ZN10open_spiel5tarok23TalonExchangePhaseTest8Ev()
  call void @_ZN10open_spiel5tarok23TricksPlayingPhaseTest1Ev()
  call void @_ZN10open_spiel5tarok23TricksPlayingPhaseTest2Ev()
  call void @_ZN10open_spiel5tarok23TricksPlayingPhaseTest3Ev()
  call void @_ZN10open_spiel5tarok23TricksPlayingPhaseTest4Ev()
  call void @_ZN10open_spiel5tarok23TricksPlayingPhaseTest5Ev()
  call void @_ZN10open_spiel5tarok23TricksPlayingPhaseTest6Ev()
  call void @_ZN10open_spiel5tarok23TricksPlayingPhaseTest7Ev()
  call void @_ZN10open_spiel5tarok17CapturedMondTest1Ev()
  call void @_ZN10open_spiel5tarok17CapturedMondTest2Ev()
  call void @_ZN10open_spiel5tarok17CapturedMondTest3Ev()
  call void @_ZN10open_spiel5tarok17CapturedMondTest4Ev()
  call void @_ZN10open_spiel5tarok17CapturedMondTest5Ev()
  call void @_ZN10open_spiel5tarok17CapturedMondTest6Ev()
  call void @_ZN10open_spiel5tarok17CapturedMondTest7Ev()
  call void @_ZN10open_spiel5tarok17CapturedMondTest8Ev()
  call void @_ZN10open_spiel5tarok17CapturedMondTest9Ev()
  ret i32 0
}