; Function Attrs: mustprogress norecurse uwtable
define dso_local noundef i32 @main(i32 noundef %0, ptr nocapture noundef readnone %1) local_unnamed_addr #10 {
  tail call void @_ZN10open_spiel5tarok14BasicGameTestsEv()
  tail call void @_ZN10open_spiel5tarok25CardDeckShufflingSeedTestEv()
  tail call void @_ZN10open_spiel5tarok18DealtCardsSizeTestEi(i32 noundef 3)
  tail call void @_ZN10open_spiel5tarok18DealtCardsSizeTestEi(i32 noundef 4)
  tail call void @_ZN10open_spiel5tarok21DealtCardsContentTestEi(i32 noundef 3)
  tail call void @_ZN10open_spiel5tarok21DealtCardsContentTestEi(i32 noundef 4)
  tail call void @_ZN10open_spiel5tarok22PlayersCardsSortedTestEv()
  tail call void @_ZN10open_spiel5tarok14CountCardsTestEv()
  tail call void @_ZN10open_spiel5tarok20CardDealingPhaseTestEv()
  tail call void @_ZN10open_spiel5tarok25BiddingPhase3PlayersTest1Ev()
  tail call void @_ZN10open_spiel5tarok25BiddingPhase3PlayersTest2Ev()
  tail call void @_ZN10open_spiel5tarok25BiddingPhase3PlayersTest3Ev()
  tail call void @_ZN10open_spiel5tarok25BiddingPhase3PlayersTest4Ev()
  tail call void @_ZN10open_spiel5tarok25BiddingPhase4PlayersTest1Ev()
  tail call void @_ZN10open_spiel5tarok25BiddingPhase4PlayersTest2Ev()
  tail call void @_ZN10open_spiel5tarok25BiddingPhase4PlayersTest3Ev()
  tail call void @_ZN10open_spiel5tarok25BiddingPhase4PlayersTest4Ev()
  tail call void @_ZN10open_spiel5tarok25BiddingPhase4PlayersTest5Ev()
  tail call void @_ZN10open_spiel5tarok23TalonExchangePhaseTest1Ev()
  tail call void @_ZN10open_spiel5tarok23TalonExchangePhaseTest2Ev()
  tail call void @_ZN10open_spiel5tarok23TalonExchangePhaseTest3Ev()
  tail call void @_ZN10open_spiel5tarok23TalonExchangePhaseTest4Ev()
  tail call void @_ZN10open_spiel5tarok23TalonExchangePhaseTest5Ev()
  tail call void @_ZN10open_spiel5tarok23TalonExchangePhaseTest6Ev()
  tail call void @_ZN10open_spiel5tarok23TalonExchangePhaseTest7Ev()
  tail call void @_ZN10open_spiel5tarok23TalonExchangePhaseTest8Ev()
  tail call void @_ZN10open_spiel5tarok23TricksPlayingPhaseTest1Ev()
  tail call void @_ZN10open_spiel5tarok23TricksPlayingPhaseTest2Ev()
  tail call void @_ZN10open_spiel5tarok23TricksPlayingPhaseTest3Ev()
  tail call void @_ZN10open_spiel5tarok23TricksPlayingPhaseTest4Ev()
  tail call void @_ZN10open_spiel5tarok23TricksPlayingPhaseTest5Ev()
  tail call void @_ZN10open_spiel5tarok23TricksPlayingPhaseTest6Ev()
  tail call void @_ZN10open_spiel5tarok23TricksPlayingPhaseTest7Ev()
  tail call void @_ZN10open_spiel5tarok17CapturedMondTest1Ev()
  tail call void @_ZN10open_spiel5tarok17CapturedMondTest2Ev()
  tail call void @_ZN10open_spiel5tarok17CapturedMondTest3Ev()
  tail call void @_ZN10open_spiel5tarok17CapturedMondTest4Ev()
  tail call void @_ZN10open_spiel5tarok17CapturedMondTest5Ev()
  tail call void @_ZN10open_spiel5tarok17CapturedMondTest6Ev()
  tail call void @_ZN10open_spiel5tarok17CapturedMondTest7Ev()
  tail call void @_ZN10open_spiel5tarok17CapturedMondTest8Ev()
  tail call void @_ZN10open_spiel5tarok17CapturedMondTest9Ev()
  ret i32 0
}